target datalayout = "e-m:e-p270:32:32-p271:32:32-p272:64:64-i64:64-i128:128-f80:128-n8:16:32:64-S128"
target triple = "x86_64-pc-linux-gnu"

%struct.ggml_tensor = type { i32, ptr, [4 x i64], [4 x i64], i32, [16 x i32], i32, [10 x ptr], ptr, i64, ptr, [64 x i8], ptr, [8 x i8] }

@.str.12 = private unnamed_addr constant [113 x i8] c"generated/home/dtcxzyw/WorkSpace/Projects/compilers/llvm-opt-benchmark/bench/llama.cpp/llama.cpp/ggml/src/ggml.c\00", align 1
@.str.13 = private unnamed_addr constant [23 x i8] c"GGML_ASSERT(%s) failed\00", align 1
@.str.23 = private unnamed_addr constant [10 x i8] c"%s (view)\00", align 1
@.str.28 = private unnamed_addr constant [22 x i8] c"ggml_can_repeat(b, a)\00", align 1

; Function Attrs: nounwind uwtable
define ptr @ggml_new_tensor(ptr noundef %0, i32 noundef %1, i32 noundef %2, ptr noundef %3) #5 {
  %5 = alloca ptr, align 8
  %6 = alloca i32, align 4
  %7 = alloca i32, align 4
  %8 = alloca ptr, align 8
  store ptr %0, ptr %5, align 8, !tbaa !48
  store i32 %1, ptr %6, align 4, !tbaa !8
  store i32 %2, ptr %7, align 4, !tbaa !8
  store ptr %3, ptr %8, align 8, !tbaa !88
  %9 = load ptr, ptr %5, align 8, !tbaa !48
  %10 = load i32, ptr %6, align 4, !tbaa !8
  %11 = load i32, ptr %7, align 4, !tbaa !8
  %12 = load ptr, ptr %8, align 8, !tbaa !88
  %13 = call ptr @ggml_new_tensor_impl(ptr noundef %9, i32 noundef %10, i32 noundef %11, ptr noundef %12, ptr noundef null, i64 noundef 0)
  ret ptr %13
}

; Function Attrs: nounwind uwtable
define zeroext i1 @ggml_is_empty(ptr noundef %0) #5 {
  %2 = alloca i1, align 1
  %3 = alloca ptr, align 8
  %4 = alloca i32, align 4
  %5 = alloca i32, align 4
  store ptr %0, ptr %3, align 8, !tbaa !54
  call void @llvm.lifetime.start.p0(i64 4, ptr %4) #14
  store i32 0, ptr %4, align 4, !tbaa !8
  br label %6

6:                                                ; preds = %20, %1
  %7 = load i32, ptr %4, align 4, !tbaa !8
  %8 = icmp slt i32 %7, 4
  br i1 %8, label %10, label %9

9:                                                ; preds = %6
  store i32 2, ptr %5, align 4
  br label %23

10:                                               ; preds = %6
  %11 = load ptr, ptr %3, align 8, !tbaa !54
  %12 = getelementptr inbounds nuw %struct.ggml_tensor, ptr %11, i32 0, i32 2
  %13 = load i32, ptr %4, align 4, !tbaa !8
  %14 = sext i32 %13 to i64
  %15 = getelementptr inbounds [4 x i64], ptr %12, i64 0, i64 %14
  %16 = load i64, ptr %15, align 8, !tbaa !19
  %17 = icmp eq i64 %16, 0
  br i1 %17, label %18, label %19

18:                                               ; preds = %10
  store i1 true, ptr %2, align 1
  store i32 1, ptr %5, align 4
  br label %23

19:                                               ; preds = %10
  br label %20

20:                                               ; preds = %19
  %21 = load i32, ptr %4, align 4, !tbaa !8
  %22 = add nsw i32 %21, 1
  store i32 %22, ptr %4, align 4, !tbaa !8
  br label %6, !llvm.loop !71

23:                                               ; preds = %18, %9
  call void @llvm.lifetime.end.p0(i64 4, ptr %4) #14
  %24 = load i32, ptr %5, align 4
  switch i32 %24, label %28 [
    i32 2, label %25
    i32 1, label %26
  ]

25:                                               ; preds = %23
  store i1 false, ptr %2, align 1
  br label %26

26:                                               ; preds = %25, %23
  %27 = load i1, ptr %2, align 1
  ret i1 %27

28:                                               ; preds = %23
  unreachable
}

; Function Attrs: nounwind uwtable
define ptr @ggml_dup_tensor(ptr noundef %0, ptr noundef %1) #5 {
  %3 = alloca ptr, align 8
  %4 = alloca ptr, align 8
  store ptr %0, ptr %3, align 8, !tbaa !48
  store ptr %1, ptr %4, align 8, !tbaa !54
  %5 = load ptr, ptr %3, align 8, !tbaa !48
  %6 = load ptr, ptr %4, align 8, !tbaa !54
  %7 = getelementptr inbounds nuw %struct.ggml_tensor, ptr %6, i32 0, i32 0
  %8 = load i32, ptr %7, align 8, !tbaa !56
  %9 = load ptr, ptr %4, align 8, !tbaa !54
  %10 = getelementptr inbounds nuw %struct.ggml_tensor, ptr %9, i32 0, i32 2
  %11 = getelementptr inbounds [4 x i64], ptr %10, i64 0, i64 0
  %12 = call ptr @ggml_new_tensor(ptr noundef %5, i32 noundef %8, i32 noundef 4, ptr noundef %11)
  ret ptr %12
}

; Function Attrs: nounwind uwtable
define ptr @ggml_view_tensor(ptr noundef %0, ptr noundef %1) #5 {
  %3 = alloca ptr, align 8
  %4 = alloca ptr, align 8
  %5 = alloca ptr, align 8
  %6 = alloca i32, align 4
  store ptr %0, ptr %3, align 8, !tbaa !48
  store ptr %1, ptr %4, align 8, !tbaa !54
  call void @llvm.lifetime.start.p0(i64 8, ptr %5) #14
  %7 = load ptr, ptr %3, align 8, !tbaa !48
  %8 = load ptr, ptr %4, align 8, !tbaa !54
  %9 = getelementptr inbounds nuw %struct.ggml_tensor, ptr %8, i32 0, i32 0
  %10 = load i32, ptr %9, align 8, !tbaa !56
  %11 = load ptr, ptr %4, align 8, !tbaa !54
  %12 = getelementptr inbounds nuw %struct.ggml_tensor, ptr %11, i32 0, i32 2
  %13 = getelementptr inbounds [4 x i64], ptr %12, i64 0, i64 0
  %14 = load ptr, ptr %4, align 8, !tbaa !54
  %15 = call ptr @ggml_new_tensor_impl(ptr noundef %7, i32 noundef %10, i32 noundef 4, ptr noundef %13, ptr noundef %14, i64 noundef 0)
  store ptr %15, ptr %5, align 8, !tbaa !54
  %16 = load ptr, ptr %5, align 8, !tbaa !54
  %17 = load ptr, ptr %4, align 8, !tbaa !54
  %18 = getelementptr inbounds nuw %struct.ggml_tensor, ptr %17, i32 0, i32 11
  %19 = getelementptr inbounds [64 x i8], ptr %18, i64 0, i64 0
  %20 = call ptr (ptr, ptr, ...) @ggml_format_name(ptr noundef %16, ptr noundef @.str.23, ptr noundef %19)
  call void @llvm.lifetime.start.p0(i64 4, ptr %6) #14
  store i32 0, ptr %6, align 4, !tbaa !8
  br label %21

21:                                               ; preds = %37, %2
  %22 = load i32, ptr %6, align 4, !tbaa !8
  %23 = icmp slt i32 %22, 4
  br i1 %23, label %25, label %24

24:                                               ; preds = %21
  call void @llvm.lifetime.end.p0(i64 4, ptr %6) #14
  br label %40

25:                                               ; preds = %21
  %26 = load ptr, ptr %4, align 8, !tbaa !54
  %27 = getelementptr inbounds nuw %struct.ggml_tensor, ptr %26, i32 0, i32 3
  %28 = load i32, ptr %6, align 4, !tbaa !8
  %29 = sext i32 %28 to i64
  %30 = getelementptr inbounds [4 x i64], ptr %27, i64 0, i64 %29
  %31 = load i64, ptr %30, align 8, !tbaa !19
  %32 = load ptr, ptr %5, align 8, !tbaa !54
  %33 = getelementptr inbounds nuw %struct.ggml_tensor, ptr %32, i32 0, i32 3
  %34 = load i32, ptr %6, align 4, !tbaa !8
  %35 = sext i32 %34 to i64
  %36 = getelementptr inbounds [4 x i64], ptr %33, i64 0, i64 %35
  store i64 %31, ptr %36, align 8, !tbaa !19
  br label %37

37:                                               ; preds = %25
  %38 = load i32, ptr %6, align 4, !tbaa !8
  %39 = add nsw i32 %38, 1
  store i32 %39, ptr %6, align 4, !tbaa !8
  br label %21, !llvm.loop !101

40:                                               ; preds = %24
  %41 = load ptr, ptr %5, align 8, !tbaa !54
  call void @llvm.lifetime.end.p0(i64 8, ptr %5) #14
  ret ptr %41
}

; Function Attrs: nounwind uwtable
define zeroext i1 @ggml_can_repeat(ptr noundef %0, ptr noundef %1) #5 {
  %3 = alloca ptr, align 8
  %4 = alloca ptr, align 8
  store ptr %0, ptr %3, align 8, !tbaa !54
  store ptr %1, ptr %4, align 8, !tbaa !54
  %5 = load ptr, ptr %3, align 8, !tbaa !54
  %6 = call zeroext i1 @ggml_is_empty(ptr noundef %5)
  br i1 %6, label %7, label %11

7:                                                ; preds = %2
  %8 = load ptr, ptr %4, align 8, !tbaa !54
  %9 = call zeroext i1 @ggml_is_empty(ptr noundef %8)
  %10 = zext i1 %9 to i32
  br label %58

11:                                               ; preds = %2
  %12 = load ptr, ptr %4, align 8, !tbaa !54
  %13 = getelementptr inbounds nuw %struct.ggml_tensor, ptr %12, i32 0, i32 2
  %14 = getelementptr inbounds [4 x i64], ptr %13, i64 0, i64 0
  %15 = load i64, ptr %14, align 8, !tbaa !19
  %16 = load ptr, ptr %3, align 8, !tbaa !54
  %17 = getelementptr inbounds nuw %struct.ggml_tensor, ptr %16, i32 0, i32 2
  %18 = getelementptr inbounds [4 x i64], ptr %17, i64 0, i64 0
  %19 = load i64, ptr %18, align 8, !tbaa !19
  %20 = srem i64 %15, %19
  %21 = icmp eq i64 %20, 0
  br i1 %21, label %22, label %55

22:                                               ; preds = %11
  %23 = load ptr, ptr %4, align 8, !tbaa !54
  %24 = getelementptr inbounds nuw %struct.ggml_tensor, ptr %23, i32 0, i32 2
  %25 = getelementptr inbounds [4 x i64], ptr %24, i64 0, i64 1
  %26 = load i64, ptr %25, align 8, !tbaa !19
  %27 = load ptr, ptr %3, align 8, !tbaa !54
  %28 = getelementptr inbounds nuw %struct.ggml_tensor, ptr %27, i32 0, i32 2
  %29 = getelementptr inbounds [4 x i64], ptr %28, i64 0, i64 1
  %30 = load i64, ptr %29, align 8, !tbaa !19
  %31 = srem i64 %26, %30
  %32 = icmp eq i64 %31, 0
  br i1 %32, label %33, label %55

33:                                               ; preds = %22
  %34 = load ptr, ptr %4, align 8, !tbaa !54
  %35 = getelementptr inbounds nuw %struct.ggml_tensor, ptr %34, i32 0, i32 2
  %36 = getelementptr inbounds [4 x i64], ptr %35, i64 0, i64 2
  %37 = load i64, ptr %36, align 8, !tbaa !19
  %38 = load ptr, ptr %3, align 8, !tbaa !54
  %39 = getelementptr inbounds nuw %struct.ggml_tensor, ptr %38, i32 0, i32 2
  %40 = getelementptr inbounds [4 x i64], ptr %39, i64 0, i64 2
  %41 = load i64, ptr %40, align 8, !tbaa !19
  %42 = srem i64 %37, %41
  %43 = icmp eq i64 %42, 0
  br i1 %43, label %44, label %55

44:                                               ; preds = %33
  %45 = load ptr, ptr %4, align 8, !tbaa !54
  %46 = getelementptr inbounds nuw %struct.ggml_tensor, ptr %45, i32 0, i32 2
  %47 = getelementptr inbounds [4 x i64], ptr %46, i64 0, i64 3
  %48 = load i64, ptr %47, align 8, !tbaa !19
  %49 = load ptr, ptr %3, align 8, !tbaa !54
  %50 = getelementptr inbounds nuw %struct.ggml_tensor, ptr %49, i32 0, i32 2
  %51 = getelementptr inbounds [4 x i64], ptr %50, i64 0, i64 3
  %52 = load i64, ptr %51, align 8, !tbaa !19
  %53 = srem i64 %48, %52
  %54 = icmp eq i64 %53, 0
  br label %55

55:                                               ; preds = %44, %33, %22, %11
  %56 = phi i1 [ false, %33 ], [ false, %22 ], [ false, %11 ], [ %54, %44 ]
  %57 = zext i1 %56 to i32
  br label %58

58:                                               ; preds = %55, %7
  %59 = phi i32 [ %10, %7 ], [ %57, %55 ]
  %60 = icmp ne i32 %59, 0
  ret i1 %60
}

; Function Attrs: nounwind uwtable
define internal ptr @ggml_add_impl(ptr noundef %0, ptr noundef %1, ptr noundef %2, i1 noundef zeroext %3) #5 {
  %5 = alloca ptr, align 8
  %6 = alloca ptr, align 8
  %7 = alloca ptr, align 8
  %8 = alloca i8, align 1
  %9 = alloca ptr, align 8
  store ptr %0, ptr %5, align 8, !tbaa !48
  store ptr %1, ptr %6, align 8, !tbaa !54
  store ptr %2, ptr %7, align 8, !tbaa !54
  %10 = zext i1 %3 to i8
  store i8 %10, ptr %8, align 1, !tbaa !72
  %11 = load ptr, ptr %7, align 8, !tbaa !54
  %12 = load ptr, ptr %6, align 8, !tbaa !54
  %13 = call zeroext i1 @ggml_can_repeat(ptr noundef %11, ptr noundef %12)
  br i1 %13, label %15, label %14

14:                                               ; preds = %4
  call void (ptr, i32, ptr, ...) @ggml_abort(ptr noundef @.str.12, i32 noundef 1850, ptr noundef @.str.13, ptr noundef @.str.28) #18
  unreachable

15:                                               ; preds = %4
  call void @llvm.lifetime.start.p0(i64 8, ptr %9) #14
  %16 = load i8, ptr %8, align 1, !tbaa !72, !range !66, !noundef !67
  %17 = trunc i8 %16 to i1
  br i1 %17, label %18, label %22

18:                                               ; preds = %15
  %19 = load ptr, ptr %5, align 8, !tbaa !48
  %20 = load ptr, ptr %6, align 8, !tbaa !54
  %21 = call ptr @ggml_view_tensor(ptr noundef %19, ptr noundef %20)
  br label %26

22:                                               ; preds = %15
  %23 = load ptr, ptr %5, align 8, !tbaa !48
  %24 = load ptr, ptr %6, align 8, !tbaa !54
  %25 = call ptr @ggml_dup_tensor(ptr noundef %23, ptr noundef %24)
  br label %26

26:                                               ; preds = %22, %18
  %27 = phi ptr [ %21, %18 ], [ %25, %22 ]
  store ptr %27, ptr %9, align 8, !tbaa !54
  %28 = load ptr, ptr %9, align 8, !tbaa !54
  %29 = getelementptr inbounds nuw %struct.ggml_tensor, ptr %28, i32 0, i32 4
  store i32 2, ptr %29, align 8, !tbaa !68
  %30 = load ptr, ptr %6, align 8, !tbaa !54
  %31 = load ptr, ptr %9, align 8, !tbaa !54
  %32 = getelementptr inbounds nuw %struct.ggml_tensor, ptr %31, i32 0, i32 7
  %33 = getelementptr inbounds [10 x ptr], ptr %32, i64 0, i64 0
  store ptr %30, ptr %33, align 8, !tbaa !54
  %34 = load ptr, ptr %7, align 8, !tbaa !54
  %35 = load ptr, ptr %9, align 8, !tbaa !54
  %36 = getelementptr inbounds nuw %struct.ggml_tensor, ptr %35, i32 0, i32 7
  %37 = getelementptr inbounds [10 x ptr], ptr %36, i64 0, i64 1
  store ptr %34, ptr %37, align 8, !tbaa !54
  %38 = load ptr, ptr %9, align 8, !tbaa !54
  call void @llvm.lifetime.end.p0(i64 8, ptr %9) #14
  ret ptr %38
}