; Function Attrs: nounwind uwtable
define internal fastcc noundef ptr @ggml_add_impl(ptr noundef captures(none) %0, ptr noundef %1, ptr noundef %2, i1 noundef zeroext %3) unnamed_addr #4 {
  %5 = getelementptr inbounds nuw i8, ptr %2, i64 16
  br label %6

6:                                                ; preds = %6, %4
  %indvars.iv.i.i = phi i64 [ 0, %4 ], [ %indvars.iv.next.i.i, %6 ]
  %7 = getelementptr inbounds nuw [4 x i64], ptr %5, i64 0, i64 %indvars.iv.i.i
  %8 = load i64, ptr %7, align 8, !tbaa !39
  %9 = icmp eq i64 %8, 0
  %indvars.iv.next.i.i = add nuw nsw i64 %indvars.iv.i.i, 1
  %exitcond.not.i.i = icmp eq i64 %indvars.iv.next.i.i, 4
  %or.cond.i.i = select i1 %9, i1 true, i1 %exitcond.not.i.i
  br i1 %or.cond.i.i, label %ggml_is_empty.exit.i, label %6, !llvm.loop !58

ggml_is_empty.exit.i:                             ; preds = %6
  %10 = getelementptr inbounds nuw i8, ptr %1, i64 16
  br i1 %9, label %.preheader, label %14

.preheader:                                       ; preds = %ggml_is_empty.exit.i, %.preheader
  %indvars.iv.i10.i = phi i64 [ %indvars.iv.next.i11.i, %.preheader ], [ 0, %ggml_is_empty.exit.i ]
  %11 = getelementptr inbounds nuw [4 x i64], ptr %10, i64 0, i64 %indvars.iv.i10.i
  %12 = load i64, ptr %11, align 8, !tbaa !39
  %13 = icmp eq i64 %12, 0
  %indvars.iv.next.i11.i = add nuw nsw i64 %indvars.iv.i10.i, 1
  %exitcond.not.i12.i = icmp eq i64 %indvars.iv.next.i11.i, 4
  %or.cond.i13.i = select i1 %13, i1 true, i1 %exitcond.not.i12.i
  br i1 %or.cond.i13.i, label %ggml_can_repeat.exit, label %.preheader, !llvm.loop !58

14:                                               ; preds = %ggml_is_empty.exit.i
  %15 = load i64, ptr %10, align 8, !tbaa !39
  %16 = load i64, ptr %5, align 8, !tbaa !39
  %17 = srem i64 %15, %16
  %18 = icmp eq i64 %17, 0
  br i1 %18, label %19, label %ggml_can_repeat.exit.thread

19:                                               ; preds = %14
  %20 = getelementptr inbounds nuw i8, ptr %1, i64 24
  %21 = load i64, ptr %20, align 8, !tbaa !39
  %22 = getelementptr inbounds nuw i8, ptr %2, i64 24
  %23 = load i64, ptr %22, align 8, !tbaa !39
  %24 = srem i64 %21, %23
  %25 = icmp eq i64 %24, 0
  br i1 %25, label %26, label %ggml_can_repeat.exit.thread

26:                                               ; preds = %19
  %27 = getelementptr inbounds nuw i8, ptr %1, i64 32
  %28 = load i64, ptr %27, align 8, !tbaa !39
  %29 = getelementptr inbounds nuw i8, ptr %2, i64 32
  %30 = load i64, ptr %29, align 8, !tbaa !39
  %31 = srem i64 %28, %30
  %32 = icmp eq i64 %31, 0
  br i1 %32, label %33, label %ggml_can_repeat.exit.thread

33:                                               ; preds = %26
  %34 = getelementptr inbounds nuw i8, ptr %1, i64 40
  %35 = load i64, ptr %34, align 8, !tbaa !39
  %36 = getelementptr inbounds nuw i8, ptr %2, i64 40
  %37 = load i64, ptr %36, align 8, !tbaa !39
  %38 = srem i64 %35, %37
  %39 = icmp eq i64 %38, 0
  br i1 %39, label %40, label %ggml_can_repeat.exit.thread

ggml_can_repeat.exit:                             ; preds = %.preheader
  br i1 %13, label %40, label %ggml_can_repeat.exit.thread

ggml_can_repeat.exit.thread:                      ; preds = %14, %19, %26, %33, %ggml_can_repeat.exit
  tail call void (ptr, i32, ptr, ...) @ggml_abort(ptr noundef nonnull @.str.12, i32 noundef 1850, ptr noundef nonnull @.str.13, ptr noundef nonnull @.str.28) #47
  unreachable

40:                                               ; preds = %33, %ggml_can_repeat.exit
  %41 = load i32, ptr %1, align 8, !tbaa !40
  br i1 %3, label %42, label %52

42:                                               ; preds = %40
  %43 = tail call fastcc ptr @ggml_new_tensor_impl(ptr noundef %0, i32 noundef %41, i32 noundef 4, ptr noundef nonnull %10, ptr noundef nonnull %1, i64 noundef 0)
  %44 = getelementptr inbounds nuw i8, ptr %1, i64 256
  %45 = tail call ptr (ptr, ptr, ...) @ggml_format_name(ptr noundef %43, ptr noundef nonnull @.str.23, ptr noundef nonnull %44)
  %46 = getelementptr inbounds nuw i8, ptr %1, i64 48
  %47 = getelementptr inbounds nuw i8, ptr %43, i64 48
  br label %48

48:                                               ; preds = %48, %42
  %indvars.iv.i = phi i64 [ 0, %42 ], [ %indvars.iv.next.i, %48 ]
  %49 = getelementptr inbounds nuw [4 x i64], ptr %46, i64 0, i64 %indvars.iv.i
  %50 = load i64, ptr %49, align 8, !tbaa !39
  %51 = getelementptr inbounds nuw [4 x i64], ptr %47, i64 0, i64 %indvars.iv.i
  store i64 %50, ptr %51, align 8, !tbaa !39
  %indvars.iv.next.i = add nuw nsw i64 %indvars.iv.i, 1
  %exitcond.not.i = icmp eq i64 %indvars.iv.next.i, 4
  br i1 %exitcond.not.i, label %ggml_view_tensor.exit, label %48, !llvm.loop !86

52:                                               ; preds = %40
  %53 = tail call fastcc noundef ptr @ggml_new_tensor_impl(ptr noundef %0, i32 noundef %41, i32 noundef 4, ptr noundef nonnull readonly %10, ptr noundef null, i64 noundef 0)
  br label %ggml_view_tensor.exit

ggml_view_tensor.exit:                            ; preds = %48, %52
  %54 = phi ptr [ %53, %52 ], [ %43, %48 ]
  %55 = getelementptr inbounds nuw i8, ptr %54, i64 80
  store i32 2, ptr %55, align 8, !tbaa !55
  %56 = getelementptr inbounds nuw i8, ptr %54, i64 152
  store ptr %1, ptr %56, align 8, !tbaa !81
  %57 = getelementptr inbounds nuw i8, ptr %54, i64 160
  store ptr %2, ptr %57, align 8, !tbaa !81
  ret ptr %54
}